target datalayout = "e-m:e-p270:32:32-p271:32:32-p272:64:64-i64:64-i128:128-f80:128-n8:16:32:64-S128"
target triple = "x86_64-pc-linux-gnu"

%"class.cv::MatConstIterator_" = type { %"class.cv::MatConstIterator" }
%"class.cv::MatConstIterator" = type { ptr, i64, ptr, ptr, ptr }

; Function Attrs: inlinehint mustprogress uwtable
define linkonce_odr hidden noundef nonnull align 8 dereferenceable(40) ptr @_ZN2cv16MatConstIteratorpLEl(ptr noundef nonnull align 8 dereferenceable(40) %0, i64 noundef %1) #8 comdat align 2 {
  %3 = alloca ptr, align 8
  %4 = alloca ptr, align 8
  %5 = alloca i64, align 8
  %6 = alloca i64, align 8
  store ptr %0, ptr %4, align 8, !tbaa !279
  store i64 %1, ptr %5, align 8, !tbaa !48
  %7 = load ptr, ptr %4, align 8
  %8 = getelementptr inbounds nuw %"class.cv::MatConstIterator", ptr %7, i32 0, i32 0
  %9 = load ptr, ptr %8, align 8, !tbaa !139
  %10 = icmp ne ptr %9, null
  br i1 %10, label %11, label %14

11:                                               ; preds = %2
  %12 = load i64, ptr %5, align 8, !tbaa !48
  %13 = icmp eq i64 %12, 0
  br i1 %13, label %14, label %15

14:                                               ; preds = %11, %2
  store ptr %7, ptr %3, align 8
  br label %43

15:                                               ; preds = %11
  call void @llvm.lifetime.start.p0(i64 8, ptr %6) #3
  %16 = load i64, ptr %5, align 8, !tbaa !48
  %17 = getelementptr inbounds nuw %"class.cv::MatConstIterator", ptr %7, i32 0, i32 1
  %18 = load i64, ptr %17, align 8, !tbaa !281
  %19 = mul i64 %16, %18
  store i64 %19, ptr %6, align 8, !tbaa !48
  %20 = load i64, ptr %6, align 8, !tbaa !48
  %21 = getelementptr inbounds nuw %"class.cv::MatConstIterator", ptr %7, i32 0, i32 2
  %22 = load ptr, ptr %21, align 8, !tbaa !137
  %23 = getelementptr inbounds i8, ptr %22, i64 %20
  store ptr %23, ptr %21, align 8, !tbaa !137
  %24 = getelementptr inbounds nuw %"class.cv::MatConstIterator", ptr %7, i32 0, i32 2
  %25 = load ptr, ptr %24, align 8, !tbaa !137
  %26 = getelementptr inbounds nuw %"class.cv::MatConstIterator", ptr %7, i32 0, i32 3
  %27 = load ptr, ptr %26, align 8, !tbaa !282
  %28 = icmp ult ptr %25, %27
  br i1 %28, label %35, label %29

29:                                               ; preds = %15
  %30 = getelementptr inbounds nuw %"class.cv::MatConstIterator", ptr %7, i32 0, i32 4
  %31 = load ptr, ptr %30, align 8, !tbaa !283
  %32 = getelementptr inbounds nuw %"class.cv::MatConstIterator", ptr %7, i32 0, i32 2
  %33 = load ptr, ptr %32, align 8, !tbaa !137
  %34 = icmp ule ptr %31, %33
  br i1 %34, label %35, label %42

35:                                               ; preds = %29, %15
  %36 = load i64, ptr %6, align 8, !tbaa !48
  %37 = getelementptr inbounds nuw %"class.cv::MatConstIterator", ptr %7, i32 0, i32 2
  %38 = load ptr, ptr %37, align 8, !tbaa !137
  %39 = sub i64 0, %36
  %40 = getelementptr inbounds i8, ptr %38, i64 %39
  store ptr %40, ptr %37, align 8, !tbaa !137
  %41 = load i64, ptr %5, align 8, !tbaa !48
  call void @_ZN2cv16MatConstIterator4seekElb(ptr noundef nonnull align 8 dereferenceable(40) %7, i64 noundef %41, i1 noundef zeroext true)
  br label %42

42:                                               ; preds = %35, %29
  store ptr %7, ptr %3, align 8
  call void @llvm.lifetime.end.p0(i64 8, ptr %6) #3
  br label %43

43:                                               ; preds = %42, %14
  %44 = load ptr, ptr %3, align 8
  ret ptr %44
}

; Function Attrs: inlinehint mustprogress nounwind uwtable
define linkonce_odr hidden void @_ZN2cv16MatConstIteratorC2Ev(ptr noundef nonnull align 8 dereferenceable(40) %0) unnamed_addr #6 comdat align 2 {
  %2 = alloca ptr, align 8
  store ptr %0, ptr %2, align 8, !tbaa !279
  %3 = load ptr, ptr %2, align 8
  %4 = getelementptr inbounds nuw %"class.cv::MatConstIterator", ptr %3, i32 0, i32 0
  store ptr null, ptr %4, align 8, !tbaa !139
  %5 = getelementptr inbounds nuw %"class.cv::MatConstIterator", ptr %3, i32 0, i32 1
  store i64 0, ptr %5, align 8, !tbaa !281
  %6 = getelementptr inbounds nuw %"class.cv::MatConstIterator", ptr %3, i32 0, i32 2
  store ptr null, ptr %6, align 8, !tbaa !137
  %7 = getelementptr inbounds nuw %"class.cv::MatConstIterator", ptr %3, i32 0, i32 3
  store ptr null, ptr %7, align 8, !tbaa !282
  %8 = getelementptr inbounds nuw %"class.cv::MatConstIterator", ptr %3, i32 0, i32 4
  store ptr null, ptr %8, align 8, !tbaa !283
  ret void
}

; Function Attrs: inlinehint mustprogress uwtable
define linkonce_odr hidden noundef nonnull align 8 dereferenceable(40) ptr @_ZN2cv16MatConstIteratorppEv(ptr noundef nonnull align 8 dereferenceable(40) %0) #8 comdat align 2 {
  %2 = alloca ptr, align 8
  store ptr %0, ptr %2, align 8, !tbaa !279
  %3 = load ptr, ptr %2, align 8
  %4 = getelementptr inbounds nuw %"class.cv::MatConstIterator", ptr %3, i32 0, i32 0
  %5 = load ptr, ptr %4, align 8, !tbaa !139
  %6 = icmp ne ptr %5, null
  br i1 %6, label %7, label %23

7:                                                ; preds = %1
  %8 = getelementptr inbounds nuw %"class.cv::MatConstIterator", ptr %3, i32 0, i32 1
  %9 = load i64, ptr %8, align 8, !tbaa !281
  %10 = getelementptr inbounds nuw %"class.cv::MatConstIterator", ptr %3, i32 0, i32 2
  %11 = load ptr, ptr %10, align 8, !tbaa !137
  %12 = getelementptr inbounds nuw i8, ptr %11, i64 %9
  store ptr %12, ptr %10, align 8, !tbaa !137
  %13 = getelementptr inbounds nuw %"class.cv::MatConstIterator", ptr %3, i32 0, i32 4
  %14 = load ptr, ptr %13, align 8, !tbaa !283
  %15 = icmp uge ptr %12, %14
  br i1 %15, label %16, label %23

16:                                               ; preds = %7
  %17 = getelementptr inbounds nuw %"class.cv::MatConstIterator", ptr %3, i32 0, i32 1
  %18 = load i64, ptr %17, align 8, !tbaa !281
  %19 = getelementptr inbounds nuw %"class.cv::MatConstIterator", ptr %3, i32 0, i32 2
  %20 = load ptr, ptr %19, align 8, !tbaa !137
  %21 = sub i64 0, %18
  %22 = getelementptr inbounds i8, ptr %20, i64 %21
  store ptr %22, ptr %19, align 8, !tbaa !137
  call void @_ZN2cv16MatConstIterator4seekElb(ptr noundef nonnull align 8 dereferenceable(40) %3, i64 noundef 1, i1 noundef zeroext true)
  br label %23

23:                                               ; preds = %16, %7, %1
  ret ptr %3
}

; Function Attrs: inlinehint mustprogress uwtable
define linkonce_odr hidden noundef nonnull align 8 dereferenceable(40) ptr @_ZN2cv17MatConstIterator_IdEpLEl(ptr noundef nonnull align 8 dereferenceable(40) %0, i64 noundef %1) #8 comdat align 2 {
  %3 = alloca ptr, align 8
  %4 = alloca i64, align 8
  store ptr %0, ptr %3, align 8, !tbaa !135
  store i64 %1, ptr %4, align 8, !tbaa !48
  %5 = load ptr, ptr %3, align 8
  %6 = load i64, ptr %4, align 8, !tbaa !48
  %7 = call noundef nonnull align 8 dereferenceable(40) ptr @_ZN2cv16MatConstIteratorpLEl(ptr noundef nonnull align 8 dereferenceable(40) %5, i64 noundef %6)
  ret ptr %5
}

; Function Attrs: inlinehint mustprogress uwtable
define linkonce_odr hidden void @_ZN2cv17MatConstIterator_IdEC2EPKNS_4Mat_IdEE(ptr noundef nonnull align 8 dereferenceable(40) %0, ptr noundef %1) unnamed_addr #8 comdat align 2 {
  %3 = alloca ptr, align 8
  %4 = alloca ptr, align 8
  store ptr %0, ptr %3, align 8, !tbaa !135
  store ptr %1, ptr %4, align 8, !tbaa !131
  %5 = load ptr, ptr %3, align 8
  %6 = load ptr, ptr %4, align 8, !tbaa !131
  call void @_ZN2cv16MatConstIteratorC2EPKNS_3MatE(ptr noundef nonnull align 8 dereferenceable(40) %5, ptr noundef %6)
  ret void
}

; Function Attrs: inlinehint mustprogress uwtable
define linkonce_odr hidden void @_ZN2cv17MatConstIterator_IdEC2Ev(ptr noundef nonnull align 8 dereferenceable(40) %0) unnamed_addr #8 comdat align 2 {
  %2 = alloca ptr, align 8
  store ptr %0, ptr %2, align 8, !tbaa !135
  %3 = load ptr, ptr %2, align 8
  call void @_ZN2cv16MatConstIteratorC2Ev(ptr noundef nonnull align 8 dereferenceable(40) %3)
  ret void
}

; Function Attrs: inlinehint mustprogress uwtable
define linkonce_odr hidden noundef nonnull align 8 dereferenceable(40) ptr @_ZN2cv17MatConstIterator_IdEppEv(ptr noundef nonnull align 8 dereferenceable(40) %0) #8 comdat align 2 {
  %2 = alloca ptr, align 8
  store ptr %0, ptr %2, align 8, !tbaa !135
  %3 = load ptr, ptr %2, align 8
  %4 = call noundef nonnull align 8 dereferenceable(40) ptr @_ZN2cv16MatConstIteratorppEv(ptr noundef nonnull align 8 dereferenceable(40) %3)
  ret ptr %3
}

; Function Attrs: inlinehint mustprogress nounwind uwtable
define linkonce_odr hidden noundef nonnull align 8 dereferenceable(8) ptr @_ZNK2cv17MatConstIterator_IdEdeEv(ptr noundef nonnull align 8 dereferenceable(40) %0) #6 comdat align 2 {
  %2 = alloca ptr, align 8
  store ptr %0, ptr %2, align 8, !tbaa !135
  %3 = load ptr, ptr %2, align 8
  %4 = getelementptr inbounds nuw %"class.cv::MatConstIterator", ptr %3, i32 0, i32 2
  %5 = load ptr, ptr %4, align 8, !tbaa !137
  ret ptr %5
}

; Function Attrs: inlinehint mustprogress nounwind uwtable
define internal noundef zeroext i1 @_ZN2cvneIdEEbRKNS_17MatConstIterator_IT_EES5_(ptr noundef nonnull align 8 dereferenceable(40) %0, ptr noundef nonnull align 8 dereferenceable(40) %1) #6 {
  %3 = alloca ptr, align 8
  %4 = alloca ptr, align 8
  store ptr %0, ptr %3, align 8, !tbaa !135
  store ptr %1, ptr %4, align 8, !tbaa !135
  %5 = load ptr, ptr %3, align 8, !tbaa !135
  %6 = getelementptr inbounds nuw %"class.cv::MatConstIterator", ptr %5, i32 0, i32 0
  %7 = load ptr, ptr %6, align 8, !tbaa !139
  %8 = load ptr, ptr %4, align 8, !tbaa !135
  %9 = getelementptr inbounds nuw %"class.cv::MatConstIterator", ptr %8, i32 0, i32 0
  %10 = load ptr, ptr %9, align 8, !tbaa !139
  %11 = icmp ne ptr %7, %10
  br i1 %11, label %20, label %12

12:                                               ; preds = %2
  %13 = load ptr, ptr %3, align 8, !tbaa !135
  %14 = getelementptr inbounds nuw %"class.cv::MatConstIterator", ptr %13, i32 0, i32 2
  %15 = load ptr, ptr %14, align 8, !tbaa !137
  %16 = load ptr, ptr %4, align 8, !tbaa !135
  %17 = getelementptr inbounds nuw %"class.cv::MatConstIterator", ptr %16, i32 0, i32 2
  %18 = load ptr, ptr %17, align 8, !tbaa !137
  %19 = icmp ne ptr %15, %18
  br label %20

20:                                               ; preds = %12, %2
  %21 = phi i1 [ true, %2 ], [ %19, %12 ]
  ret i1 %21
}

; Function Attrs: inlinehint mustprogress uwtable
define linkonce_odr hidden void @_ZNK2cv3Mat3endIdEENS_17MatConstIterator_IT_EEv(ptr dead_on_unwind noalias writable sret(%"class.cv::MatConstIterator_") align 8 %0, ptr noundef nonnull align 8 dereferenceable(96) %1) #8 comdat align 2 {
  %3 = alloca ptr, align 8
  %4 = alloca ptr, align 8
  store ptr %0, ptr %3, align 8
  store ptr %1, ptr %4, align 8, !tbaa !8
  %5 = load ptr, ptr %4, align 8
  %6 = call noundef zeroext i1 @_ZNK2cv3Mat5emptyEv(ptr noundef nonnull align 8 dereferenceable(96) %5)
  br i1 %6, label %7, label %8

7:                                                ; preds = %2
  call void @_ZN2cv17MatConstIterator_IdEC2Ev(ptr noundef nonnull align 8 dereferenceable(40) %0)
  br label %11

8:                                                ; preds = %2
  call void @_ZN2cv17MatConstIterator_IdEC2EPKNS_4Mat_IdEE(ptr noundef nonnull align 8 dereferenceable(40) %0, ptr noundef %5)
  %9 = call noundef i64 @_ZNK2cv3Mat5totalEv(ptr noundef nonnull align 8 dereferenceable(96) %5)
  %10 = call noundef nonnull align 8 dereferenceable(40) ptr @_ZN2cv17MatConstIterator_IdEpLEl(ptr noundef nonnull align 8 dereferenceable(40) %0, i64 noundef %9)
  br label %11

11:                                               ; preds = %8, %7
  ret void
}

; Function Attrs: inlinehint mustprogress uwtable
define linkonce_odr hidden void @_ZNK2cv3Mat5beginIdEENS_17MatConstIterator_IT_EEv(ptr dead_on_unwind noalias writable sret(%"class.cv::MatConstIterator_") align 8 %0, ptr noundef nonnull align 8 dereferenceable(96) %1) #8 comdat align 2 {
  %3 = alloca ptr, align 8
  %4 = alloca ptr, align 8
  store ptr %0, ptr %3, align 8
  store ptr %1, ptr %4, align 8, !tbaa !8
  %5 = load ptr, ptr %4, align 8
  %6 = call noundef zeroext i1 @_ZNK2cv3Mat5emptyEv(ptr noundef nonnull align 8 dereferenceable(96) %5)
  br i1 %6, label %7, label %8

7:                                                ; preds = %2
  call void @_ZN2cv17MatConstIterator_IdEC2Ev(ptr noundef nonnull align 8 dereferenceable(40) %0)
  br label %9

8:                                                ; preds = %2
  call void @_ZN2cv17MatConstIterator_IdEC2EPKNS_4Mat_IdEE(ptr noundef nonnull align 8 dereferenceable(40) %0, ptr noundef %5)
  br label %9

9:                                                ; preds = %8, %7
  ret void
}

; Function Attrs: mustprogress uwtable
define hidden noundef zeroext i1 @_ZN2cv3dls8is_emptyEPKNS_3MatE(ptr noundef nonnull align 8 dereferenceable(640) %0, ptr noundef %1) #4 align 2 {
  %3 = alloca i1, align 1
  %4 = alloca ptr, align 8
  %5 = alloca ptr, align 8
  %6 = alloca %"class.cv::MatConstIterator_", align 8
  %7 = alloca %"class.cv::MatConstIterator_", align 8
  %8 = alloca i32, align 4
  store ptr %0, ptr %4, align 8, !tbaa !3
  store ptr %1, ptr %5, align 8, !tbaa !8
  call void @llvm.lifetime.start.p0(i64 40, ptr %6) #3
  %9 = load ptr, ptr %5, align 8, !tbaa !8
  call void @_ZNK2cv3Mat5beginIdEENS_17MatConstIterator_IT_EEv(ptr dead_on_unwind writable sret(%"class.cv::MatConstIterator_") align 8 %6, ptr noundef nonnull align 8 dereferenceable(96) %9)
  call void @llvm.lifetime.start.p0(i64 40, ptr %7) #3
  %10 = load ptr, ptr %5, align 8, !tbaa !8
  call void @_ZNK2cv3Mat3endIdEENS_17MatConstIterator_IT_EEv(ptr dead_on_unwind writable sret(%"class.cv::MatConstIterator_") align 8 %7, ptr noundef nonnull align 8 dereferenceable(96) %10)
  br label %11

11:                                               ; preds = %19, %2
  %12 = call noundef zeroext i1 @_ZN2cvneIdEEbRKNS_17MatConstIterator_IT_EES5_(ptr noundef nonnull align 8 dereferenceable(40) %6, ptr noundef nonnull align 8 dereferenceable(40) %7)
  br i1 %12, label %13, label %21

13:                                               ; preds = %11
  %14 = call noundef nonnull align 8 dereferenceable(8) ptr @_ZNK2cv17MatConstIterator_IdEdeEv(ptr noundef nonnull align 8 dereferenceable(40) %6)
  %15 = load double, ptr %14, align 8, !tbaa !55
  %16 = fcmp olt double %15, 0.000000e+00
  br i1 %16, label %17, label %18

17:                                               ; preds = %13
  store i1 false, ptr %3, align 1
  store i32 1, ptr %8, align 4
  br label %22

18:                                               ; preds = %13
  br label %19

19:                                               ; preds = %18
  %20 = call noundef nonnull align 8 dereferenceable(40) ptr @_ZN2cv17MatConstIterator_IdEppEv(ptr noundef nonnull align 8 dereferenceable(40) %6)
  br label %11, !llvm.loop !100

21:                                               ; preds = %11
  store i1 true, ptr %3, align 1
  store i32 1, ptr %8, align 4
  br label %22

22:                                               ; preds = %21, %17
  call void @llvm.lifetime.end.p0(i64 40, ptr %7) #3
  call void @llvm.lifetime.end.p0(i64 40, ptr %6) #3
  %23 = load i1, ptr %3, align 1
  ret i1 %23
}