; Function Attrs: mustprogress uwtable
define hidden noundef zeroext i1 @_ZN2cv3dls8is_emptyEPKNS_3MatE(ptr nonnull readnone align 8 captures(none) %0, ptr noundef nonnull %1) local_unnamed_addr #3 align 2 {
  %3 = alloca %"class.cv::MatConstIterator_", align 8
  %4 = alloca %"class.cv::MatConstIterator_", align 8
  call void @llvm.lifetime.start.p0(i64 40, ptr nonnull %3) #22
  tail call void @llvm.experimental.noalias.scope.decl(metadata !308)
  %5 = tail call noundef zeroext i1 @_ZNK2cv3Mat5emptyEv(ptr noundef nonnull align 8 dereferenceable(96) %1), !noalias !308
  br i1 %5, label %6, label %7

6:                                                ; preds = %2
  call void @llvm.memset.p0.i64(ptr noundef nonnull align 8 dereferenceable(40) %3, i8 0, i64 40, i1 false), !alias.scope !308
  br label %_ZNK2cv3Mat5beginIdEENS_17MatConstIterator_IT_EEv.exit

7:                                                ; preds = %2
  call void @_ZN2cv16MatConstIteratorC2EPKNS_3MatE(ptr noundef nonnull align 8 dereferenceable(40) %3, ptr noundef nonnull align 8 dereferenceable(96) %1)
  br label %_ZNK2cv3Mat5beginIdEENS_17MatConstIterator_IT_EEv.exit

_ZNK2cv3Mat5beginIdEENS_17MatConstIterator_IT_EEv.exit: ; preds = %6, %7
  call void @llvm.lifetime.start.p0(i64 40, ptr nonnull %4) #22
  call void @llvm.experimental.noalias.scope.decl(metadata !311)
  %8 = call noundef zeroext i1 @_ZNK2cv3Mat5emptyEv(ptr noundef nonnull align 8 dereferenceable(96) %1), !noalias !311
  br i1 %8, label %9, label %10

9:                                                ; preds = %_ZNK2cv3Mat5beginIdEENS_17MatConstIterator_IT_EEv.exit
  call void @llvm.memset.p0.i64(ptr noundef nonnull align 8 dereferenceable(40) %4, i8 0, i64 40, i1 false), !alias.scope !311
  br label %_ZNK2cv3Mat3endIdEENS_17MatConstIterator_IT_EEv.exit

10:                                               ; preds = %_ZNK2cv3Mat5beginIdEENS_17MatConstIterator_IT_EEv.exit
  call void @_ZN2cv16MatConstIteratorC2EPKNS_3MatE(ptr noundef nonnull align 8 dereferenceable(40) %4, ptr noundef nonnull align 8 dereferenceable(96) %1)
  %11 = call noundef i64 @_ZNK2cv3Mat5totalEv(ptr noundef nonnull align 8 dereferenceable(96) %1)
  %12 = load ptr, ptr %4, align 8, !tbaa !88, !alias.scope !311
  %13 = icmp eq ptr %12, null
  %14 = icmp eq i64 %11, 0
  %or.cond.i.i.i = or i1 %14, %13
  br i1 %or.cond.i.i.i, label %_ZNK2cv3Mat3endIdEENS_17MatConstIterator_IT_EEv.exit, label %15

15:                                               ; preds = %10
  %16 = getelementptr inbounds nuw i8, ptr %4, i64 8
  %17 = load i64, ptr %16, align 8, !tbaa !89, !alias.scope !311
  %18 = mul i64 %17, %11
  %19 = getelementptr inbounds nuw i8, ptr %4, i64 16
  %20 = load ptr, ptr %19, align 8, !tbaa !86, !alias.scope !311
  %21 = getelementptr inbounds i8, ptr %20, i64 %18
  store ptr %21, ptr %19, align 8, !tbaa !86, !alias.scope !311
  %22 = getelementptr inbounds nuw i8, ptr %4, i64 24
  %23 = load ptr, ptr %22, align 8, !tbaa !91, !alias.scope !311
  %24 = icmp uge ptr %21, %23
  %25 = getelementptr inbounds nuw i8, ptr %4, i64 32
  %26 = load ptr, ptr %25, align 8, !alias.scope !311
  %.not.i.i.i = icmp ugt ptr %26, %21
  %or.cond9.i.i.i = select i1 %24, i1 %.not.i.i.i, i1 false
  br i1 %or.cond9.i.i.i, label %_ZNK2cv3Mat3endIdEENS_17MatConstIterator_IT_EEv.exit, label %27

27:                                               ; preds = %15
  store ptr %20, ptr %19, align 8, !tbaa !86, !alias.scope !311
  call void @_ZN2cv16MatConstIterator4seekElb(ptr noundef nonnull align 8 dereferenceable(40) %4, i64 noundef %11, i1 noundef zeroext true)
  %.val49.pre = load ptr, ptr %4, align 8, !tbaa !88
  br label %_ZNK2cv3Mat3endIdEENS_17MatConstIterator_IT_EEv.exit

_ZNK2cv3Mat3endIdEENS_17MatConstIterator_IT_EEv.exit: ; preds = %9, %10, %15, %27
  %.val49 = phi ptr [ null, %9 ], [ %12, %10 ], [ %12, %15 ], [ %.val49.pre, %27 ]
  %28 = getelementptr inbounds nuw i8, ptr %3, i64 16
  %29 = getelementptr inbounds nuw i8, ptr %4, i64 16
  %.val7 = load ptr, ptr %3, align 8, !tbaa !88
  %.val38 = load ptr, ptr %28, align 8
  %.val510 = load ptr, ptr %29, align 8
  %.not.i11 = icmp eq ptr %.val7, %.val49
  %30 = icmp eq ptr %.val38, %.val510
  %.not612 = select i1 %.not.i11, i1 %30, i1 false
  br i1 %.not612, label %._crit_edge, label %.lr.ph

.lr.ph:                                           ; preds = %_ZNK2cv3Mat3endIdEENS_17MatConstIterator_IT_EEv.exit
  %31 = getelementptr inbounds nuw i8, ptr %3, i64 8
  %32 = getelementptr inbounds nuw i8, ptr %3, i64 32
  br label %33

33:                                               ; preds = %.lr.ph, %_ZN2cv17MatConstIterator_IdEppEv.exit
  %.val525 = phi ptr [ %.val510, %.lr.ph ], [ %.val5, %_ZN2cv17MatConstIterator_IdEppEv.exit ]
  %.val423 = phi ptr [ %.val49, %.lr.ph ], [ %.val4, %_ZN2cv17MatConstIterator_IdEppEv.exit ]
  %.val321 = phi ptr [ %.val38, %.lr.ph ], [ %.val3, %_ZN2cv17MatConstIterator_IdEppEv.exit ]
  %.val19 = phi ptr [ %.val7, %.lr.ph ], [ %.val, %_ZN2cv17MatConstIterator_IdEppEv.exit ]
  %34 = load double, ptr %.val321, align 8, !tbaa !45
  %35 = fcmp uge double %34, 0.000000e+00
  br i1 %35, label %36, label %._crit_edge

36:                                               ; preds = %33
  %.not.i.i = icmp eq ptr %.val19, null
  br i1 %.not.i.i, label %_ZN2cv17MatConstIterator_IdEppEv.exit, label %37

37:                                               ; preds = %36
  %38 = load i64, ptr %31, align 8, !tbaa !89
  %39 = getelementptr inbounds nuw i8, ptr %.val321, i64 %38
  %40 = load ptr, ptr %32, align 8, !tbaa !90
  %.not1.i.i = icmp ult ptr %39, %40
  br i1 %.not1.i.i, label %_ZN2cv17MatConstIterator_IdEppEv.exit, label %41

41:                                               ; preds = %37
  store ptr %.val321, ptr %28, align 8, !tbaa !86
  call void @_ZN2cv16MatConstIterator4seekElb(ptr noundef nonnull align 8 dereferenceable(40) %3, i64 noundef 1, i1 noundef zeroext true)
  %.val.pre = load ptr, ptr %3, align 8, !tbaa !88
  %.val3.pre = load ptr, ptr %28, align 8
  %.val4.pre = load ptr, ptr %4, align 8, !tbaa !88
  %.val5.pre = load ptr, ptr %29, align 8
  br label %_ZN2cv17MatConstIterator_IdEppEv.exit

_ZN2cv17MatConstIterator_IdEppEv.exit:            ; preds = %36, %37, %41
  %.val5 = phi ptr [ %.val525, %36 ], [ %.val525, %37 ], [ %.val5.pre, %41 ]
  %.val4 = phi ptr [ %.val423, %36 ], [ %.val423, %37 ], [ %.val4.pre, %41 ]
  %.val3 = phi ptr [ %.val321, %36 ], [ %39, %37 ], [ %.val3.pre, %41 ]
  %.val = phi ptr [ null, %36 ], [ %.val19, %37 ], [ %.val.pre, %41 ]
  %.not.i = icmp eq ptr %.val, %.val4
  %42 = icmp eq ptr %.val3, %.val5
  %.not6 = select i1 %.not.i, i1 %42, i1 false
  br i1 %.not6, label %._crit_edge, label %33, !llvm.loop !314

._crit_edge:                                      ; preds = %33, %_ZN2cv17MatConstIterator_IdEppEv.exit, %_ZNK2cv3Mat3endIdEENS_17MatConstIterator_IT_EEv.exit
  %.not6.lcssa = phi i1 [ true, %_ZNK2cv3Mat3endIdEENS_17MatConstIterator_IT_EEv.exit ], [ %35, %_ZN2cv17MatConstIterator_IdEppEv.exit ], [ %35, %33 ]
  call void @llvm.lifetime.end.p0(i64 40, ptr nonnull %4) #22
  call void @llvm.lifetime.end.p0(i64 40, ptr nonnull %3) #22
  ret i1 %.not6.lcssa
}